target datalayout = "e-m:e-p270:32:32-p271:32:32-p272:64:64-i64:64-i128:128-f80:128-n8:16:32:64-S128"
target triple = "x86_64-pc-linux-gnu"

%struct.stat = type { i64, i64, i64, i32, i32, i32, i32, i64, i64, i64, i64, %struct.timespec, %struct.timespec, %struct.timespec, [3 x i64] }
%struct.timespec = type { i64, i64 }

@.str.12 = private unnamed_addr constant [8 x i8] c"output-\00", align 1

; Function Attrs: nounwind uwtable
define internal zeroext i1 @_check_file(ptr noundef %0, ptr noundef %1) #0 {
  %3 = alloca i1, align 1
  %4 = alloca ptr, align 8
  %5 = alloca ptr, align 8
  %6 = alloca %struct.stat, align 8
  %7 = alloca ptr, align 8
  %8 = alloca i32, align 4
  store ptr %0, ptr %4, align 8, !tbaa !37
  store ptr %1, ptr %5, align 8, !tbaa !37
  call void @llvm.lifetime.start.p0(i64 144, ptr %6) #6
  call void @llvm.lifetime.start.p0(i64 8, ptr %7) #6
  %9 = load ptr, ptr %5, align 8, !tbaa !37
  %10 = call i32 @strncmp(ptr noundef %9, ptr noundef @.str.12, i64 noundef 7) #7
  %11 = icmp eq i32 0, %10
  br i1 %11, label %12, label %24

12:                                               ; preds = %2
  call void @llvm.memset.p0.i64(ptr align 8 %6, i8 0, i64 144, i1 false)
  %13 = load ptr, ptr %4, align 8, !tbaa !37
  %14 = load ptr, ptr %5, align 8, !tbaa !37
  %15 = call noalias ptr (i32, ...) @pmix_os_path(i32 noundef 0, ptr noundef %13, ptr noundef %14, ptr noundef null)
  store ptr %15, ptr %7, align 8, !tbaa !37
  %16 = load ptr, ptr %7, align 8, !tbaa !37
  %17 = call i32 @stat(ptr noundef %16, ptr noundef %6) #6
  %18 = load ptr, ptr %7, align 8, !tbaa !37
  call void @free(ptr noundef %18) #6
  %19 = getelementptr inbounds nuw %struct.stat, ptr %6, i32 0, i32 8
  %20 = load i64, ptr %19, align 8, !tbaa !47
  %21 = icmp eq i64 0, %20
  br i1 %21, label %22, label %23

22:                                               ; preds = %12
  store i1 true, ptr %3, align 1
  store i32 1, ptr %8, align 4
  br label %25

23:                                               ; preds = %12
  store i1 false, ptr %3, align 1
  store i32 1, ptr %8, align 4
  br label %25

24:                                               ; preds = %2
  store i1 true, ptr %3, align 1
  store i32 1, ptr %8, align 4
  br label %25

25:                                               ; preds = %24, %23, %22
  call void @llvm.lifetime.end.p0(i64 8, ptr %7) #6
  call void @llvm.lifetime.end.p0(i64 144, ptr %6) #6
  %26 = load i1, ptr %3, align 1
  ret i1 %26
}